target datalayout = "e-m:e-p270:32:32-p271:32:32-p272:64:64-i64:64-i128:128-f80:128-n8:16:32:64-S128"
target triple = "x86_64-pc-linux-gnu"

%struct.UConverter = type { ptr, ptr, ptr, ptr, ptr, ptr, ptr, i32, i8, i8, i8, i8, i8, [7 x i8], i32, i32, i32, i32, i8, i8, i8, i8, i8, i8, i8, i8, [8 x i8], [32 x i8], [2 x i16], [2 x i16], [32 x i16], i32, [19 x i16], [31 x i8], i8, i8, i8, i32 }
%struct.UConverterDataHZ = type { ptr, i32, i32, i8, i8, i8, i8 }
%struct.cloneHZStruct = type { %struct.UConverter, %struct.UConverter, %struct.UConverterDataHZ }

; Function Attrs: inlinehint mustprogress nounwind uwtable
define internal noundef signext i8 @_ZL9U_FAILURE10UErrorCode(i32 noundef %0) #4 {
  %2 = alloca i32, align 4
  store i32 %0, ptr %2, align 4, !tbaa !14
  %3 = load i32, ptr %2, align 4, !tbaa !14
  %4 = icmp sgt i32 %3, 0
  %5 = zext i1 %4 to i8
  ret i8 %5
}

; Function Attrs: mustprogress uwtable
define internal noundef ptr @_ZL13_HZ_SafeClonePK10UConverterPvPiP10UErrorCode(ptr noundef %0, ptr noundef %1, ptr noundef %2, ptr noundef %3) #0 {
  %5 = alloca ptr, align 8
  %6 = alloca ptr, align 8
  %7 = alloca ptr, align 8
  %8 = alloca ptr, align 8
  %9 = alloca ptr, align 8
  %10 = alloca ptr, align 8
  %11 = alloca i32, align 4
  %12 = alloca i32, align 4
  %13 = alloca i32, align 4
  store ptr %0, ptr %6, align 8, !tbaa !3
  store ptr %1, ptr %7, align 8, !tbaa !8
  store ptr %2, ptr %8, align 8, !tbaa !60
  store ptr %3, ptr %9, align 8, !tbaa !8
  call void @llvm.lifetime.start.p0(i64 8, ptr %10) #7
  call void @llvm.lifetime.start.p0(i64 4, ptr %11) #7
  call void @llvm.lifetime.start.p0(i64 4, ptr %12) #7
  store i32 600, ptr %12, align 4, !tbaa !43
  %14 = load ptr, ptr %9, align 8, !tbaa !8
  %15 = load i32, ptr %14, align 4, !tbaa !14
  %16 = call noundef signext i8 @_ZL9U_FAILURE10UErrorCode(i32 noundef %15)
  %17 = icmp ne i8 %16, 0
  br i1 %17, label %18, label %19

18:                                               ; preds = %4
  store ptr null, ptr %5, align 8
  store i32 1, ptr %13, align 4
  br label %60

19:                                               ; preds = %4
  %20 = load ptr, ptr %8, align 8, !tbaa !60
  %21 = load i32, ptr %20, align 4, !tbaa !43
  %22 = icmp eq i32 %21, 0
  br i1 %22, label %23, label %26

23:                                               ; preds = %19
  %24 = load i32, ptr %12, align 4, !tbaa !43
  %25 = load ptr, ptr %8, align 8, !tbaa !60
  store i32 %24, ptr %25, align 4, !tbaa !43
  store ptr null, ptr %5, align 8
  store i32 1, ptr %13, align 4
  br label %60

26:                                               ; preds = %19
  %27 = load ptr, ptr %7, align 8, !tbaa !8
  store ptr %27, ptr %10, align 8, !tbaa !70
  br label %28

28:                                               ; preds = %26
  %29 = load ptr, ptr %10, align 8, !tbaa !70
  %30 = getelementptr inbounds nuw %struct.cloneHZStruct, ptr %29, i32 0, i32 2
  %31 = load ptr, ptr %6, align 8, !tbaa !3
  %32 = getelementptr inbounds nuw %struct.UConverter, ptr %31, i32 0, i32 2
  %33 = load ptr, ptr %32, align 8, !tbaa !23
  call void @llvm.memcpy.p0.p0.i64(ptr align 8 %30, ptr align 1 %33, i64 24, i1 false)
  br label %34

34:                                               ; preds = %28
  br label %35

35:                                               ; preds = %34
  %36 = load ptr, ptr %10, align 8, !tbaa !70
  %37 = getelementptr inbounds nuw %struct.cloneHZStruct, ptr %36, i32 0, i32 2
  %38 = load ptr, ptr %10, align 8, !tbaa !70
  %39 = getelementptr inbounds nuw %struct.cloneHZStruct, ptr %38, i32 0, i32 0
  %40 = getelementptr inbounds nuw %struct.UConverter, ptr %39, i32 0, i32 2
  store ptr %37, ptr %40, align 8, !tbaa !72
  %41 = load ptr, ptr %10, align 8, !tbaa !70
  %42 = getelementptr inbounds nuw %struct.cloneHZStruct, ptr %41, i32 0, i32 0
  %43 = getelementptr inbounds nuw %struct.UConverter, ptr %42, i32 0, i32 10
  store i8 1, ptr %43, align 2, !tbaa !74
  store i32 288, ptr %11, align 4, !tbaa !43
  %44 = load ptr, ptr %6, align 8, !tbaa !3
  %45 = getelementptr inbounds nuw %struct.UConverter, ptr %44, i32 0, i32 2
  %46 = load ptr, ptr %45, align 8, !tbaa !23
  %47 = getelementptr inbounds nuw %struct.UConverterDataHZ, ptr %46, i32 0, i32 0
  %48 = load ptr, ptr %47, align 8, !tbaa !24
  %49 = load ptr, ptr %10, align 8, !tbaa !70
  %50 = getelementptr inbounds nuw %struct.cloneHZStruct, ptr %49, i32 0, i32 1
  %51 = load ptr, ptr %9, align 8, !tbaa !8
  %52 = call ptr @ucnv_safeClone_77(ptr noundef %48, ptr noundef %50, ptr noundef %11, ptr noundef %51)
  %53 = load ptr, ptr %10, align 8, !tbaa !70
  %54 = getelementptr inbounds nuw %struct.cloneHZStruct, ptr %53, i32 0, i32 0
  %55 = getelementptr inbounds nuw %struct.UConverter, ptr %54, i32 0, i32 2
  %56 = load ptr, ptr %55, align 8, !tbaa !72
  %57 = getelementptr inbounds nuw %struct.UConverterDataHZ, ptr %56, i32 0, i32 0
  store ptr %52, ptr %57, align 8, !tbaa !24
  %58 = load ptr, ptr %10, align 8, !tbaa !70
  %59 = getelementptr inbounds nuw %struct.cloneHZStruct, ptr %58, i32 0, i32 0
  store ptr %59, ptr %5, align 8
  store i32 1, ptr %13, align 4
  br label %60

60:                                               ; preds = %35, %23, %18
  call void @llvm.lifetime.end.p0(i64 4, ptr %12) #7
  call void @llvm.lifetime.end.p0(i64 4, ptr %11) #7
  call void @llvm.lifetime.end.p0(i64 8, ptr %10) #7
  %61 = load ptr, ptr %5, align 8
  ret ptr %61
}