; Function Attrs: mustprogress uwtable
define internal noundef ptr @_ZL13_HZ_SafeClonePK10UConverterPvPiP10UErrorCode(ptr noundef readonly captures(none) %0, ptr noundef %1, ptr noundef captures(none) %2, ptr noundef %3) #0 {
  %5 = alloca i32, align 4
  call void @llvm.lifetime.start.p0(i64 4, ptr nonnull %5) #8
  %6 = load i32, ptr %3, align 4, !tbaa !11
  %7 = icmp slt i32 %6, 1
  br i1 %7, label %8, label %23

8:                                                ; preds = %4
  %9 = load i32, ptr %2, align 4, !tbaa !40
  %10 = icmp eq i32 %9, 0
  br i1 %10, label %11, label %12

11:                                               ; preds = %8
  store i32 600, ptr %2, align 4, !tbaa !40
  br label %23

12:                                               ; preds = %8
  %13 = getelementptr inbounds nuw i8, ptr %1, i64 576
  %14 = getelementptr inbounds nuw i8, ptr %0, i64 16
  %15 = load ptr, ptr %14, align 8, !tbaa !13
  tail call void @llvm.memcpy.p0.p0.i64(ptr noundef nonnull align 8 dereferenceable(24) %13, ptr noundef nonnull align 1 dereferenceable(24) %15, i64 24, i1 false)
  %16 = getelementptr inbounds nuw i8, ptr %1, i64 16
  store ptr %13, ptr %16, align 8, !tbaa !61
  %17 = getelementptr inbounds nuw i8, ptr %1, i64 62
  store i8 1, ptr %17, align 2, !tbaa !63
  store i32 288, ptr %5, align 4, !tbaa !40
  %18 = load ptr, ptr %14, align 8, !tbaa !13
  %19 = load ptr, ptr %18, align 8, !tbaa !17
  %20 = getelementptr inbounds nuw i8, ptr %1, i64 288
  %21 = call ptr @ucnv_safeClone_77(ptr noundef %19, ptr noundef nonnull %20, ptr noundef nonnull %5, ptr noundef nonnull %3)
  %22 = load ptr, ptr %16, align 8, !tbaa !61
  store ptr %21, ptr %22, align 8, !tbaa !17
  br label %23

23:                                               ; preds = %4, %12, %11
  %.0 = phi ptr [ null, %11 ], [ %1, %12 ], [ null, %4 ]
  call void @llvm.lifetime.end.p0(i64 4, ptr nonnull %5) #8
  ret ptr %.0
}